; Function Attrs: nounwind uwtable
define hidden noundef ptr @_glfw_strdup(ptr noundef readonly captures(none) %0) local_unnamed_addr #2 {
  %2 = tail call i64 @strlen(ptr noundef nonnull dereferenceable(1) %0) #22
  %3 = add i64 %2, 1
  %.not = icmp eq i64 %3, 0
  br i1 %.not, label %_glfw_calloc.exit, label %4

4:                                                ; preds = %1
  %5 = load ptr, ptr getelementptr inbounds nuw (i8, ptr @_glfw, i64 8), align 8, !tbaa !8
  %6 = load ptr, ptr getelementptr inbounds nuw (i8, ptr @_glfw, i64 32), align 8, !tbaa !95
  %7 = tail call ptr %5(i64 noundef %3, ptr noundef %6) #21
  %.not.i = icmp eq ptr %7, null
  br i1 %.not.i, label %9, label %8

8:                                                ; preds = %4
  tail call void @llvm.memset.p0.i64(ptr nonnull align 1 %7, i8 0, i64 %3, i1 false)
  br label %_glfw_calloc.exit

9:                                                ; preds = %4
  tail call void (i32, ptr, ...) @_glfwInputError(i32 noundef 65541, ptr noundef null)
  br label %_glfw_calloc.exit

_glfw_calloc.exit:                                ; preds = %1, %8, %9
  %.1.i = phi ptr [ %7, %8 ], [ null, %9 ], [ null, %1 ]
  %10 = tail call ptr @strcpy(ptr noundef nonnull dereferenceable(1) %.1.i, ptr noundef nonnull dereferenceable(1) %0) #21
  ret ptr %.1.i
}